target datalayout = "e-m:e-p270:32:32-p271:32:32-p272:64:64-i64:64-i128:128-f80:128-n8:16:32:64-S128"
target triple = "x86_64-pc-linux-gnu"

%struct.file_entry_t = type { i32, ptr, i8, i8, i32, i64, ptr, %struct.datapagemap, i8, i32, i64, ptr, i32 }
%struct.datapagemap = type { ptr, i32 }

@.str = private unnamed_addr constant [7 x i8] c"pg_wal\00", align 1
@.str.1 = private unnamed_addr constant [47 x i8] c"data file \22%s\22 in source is not a regular file\00", align 1
@.str.2 = private unnamed_addr constant [27 x i8] c"duplicate source file \22%s\22\00", align 1

; Function Attrs: nounwind uwtable
define dso_local void @process_source_file(ptr noundef %0, i32 noundef %1, i64 noundef %2, ptr noundef %3) #0 {
  %5 = alloca ptr, align 8
  %6 = alloca i32, align 4
  %7 = alloca i64, align 8
  %8 = alloca ptr, align 8
  %9 = alloca ptr, align 8
  store ptr %0, ptr %5, align 8
  store i32 %1, ptr %6, align 4
  store i64 %2, ptr %7, align 8
  store ptr %3, ptr %8, align 8
  call void @llvm.lifetime.start.p0(i64 8, ptr %9) #11
  %10 = load ptr, ptr %5, align 8
  %11 = call i32 @strcmp(ptr noundef %10, ptr noundef @.str) #12
  %12 = icmp eq i32 %11, 0
  br i1 %12, label %13, label %17

13:                                               ; preds = %4
  %14 = load i32, ptr %6, align 4
  %15 = icmp eq i32 %14, 3
  br i1 %15, label %16, label %17

16:                                               ; preds = %13
  store i32 2, ptr %6, align 4
  br label %17

17:                                               ; preds = %16, %13, %4
  %18 = load i32, ptr %6, align 4
  %19 = icmp ne i32 %18, 1
  br i1 %19, label %20, label %28

20:                                               ; preds = %17
  %21 = load ptr, ptr %5, align 8
  %22 = call zeroext i1 @isRelDataFile(ptr noundef %21)
  br i1 %22, label %23, label %28

23:                                               ; preds = %20
  br label %24

24:                                               ; preds = %23
  %25 = load ptr, ptr %5, align 8
  call void (i32, i32, ptr, ...) @pg_log_generic(i32 noundef 4, i32 noundef 0, ptr noundef @.str.1, ptr noundef %25)
  call void @exit(i32 noundef 1) #13
  unreachable

26:                                               ; No predecessors!
  br label %27

27:                                               ; preds = %26
  br label %28

28:                                               ; preds = %27, %20, %17
  %29 = load ptr, ptr %5, align 8
  %30 = call ptr @insert_filehash_entry(ptr noundef %29)
  store ptr %30, ptr %9, align 8
  %31 = load ptr, ptr %9, align 8
  %32 = getelementptr inbounds nuw %struct.file_entry_t, ptr %31, i32 0, i32 8
  %33 = load i8, ptr %32, align 8, !range !4, !noundef !5
  %34 = trunc i8 %33 to i1
  br i1 %34, label %35, label %40

35:                                               ; preds = %28
  br label %36

36:                                               ; preds = %35
  %37 = load ptr, ptr %5, align 8
  call void (i32, i32, ptr, ...) @pg_log_generic(i32 noundef 4, i32 noundef 0, ptr noundef @.str.2, ptr noundef %37)
  call void @exit(i32 noundef 1) #13
  unreachable

38:                                               ; No predecessors!
  br label %39

39:                                               ; preds = %38
  br label %40

40:                                               ; preds = %39, %28
  %41 = load ptr, ptr %9, align 8
  %42 = getelementptr inbounds nuw %struct.file_entry_t, ptr %41, i32 0, i32 8
  store i8 1, ptr %42, align 8
  %43 = load i32, ptr %6, align 4
  %44 = load ptr, ptr %9, align 8
  %45 = getelementptr inbounds nuw %struct.file_entry_t, ptr %44, i32 0, i32 9
  store i32 %43, ptr %45, align 4
  %46 = load i64, ptr %7, align 8
  %47 = load ptr, ptr %9, align 8
  %48 = getelementptr inbounds nuw %struct.file_entry_t, ptr %47, i32 0, i32 10
  store i64 %46, ptr %48, align 8
  %49 = load ptr, ptr %8, align 8
  %50 = icmp ne ptr %49, null
  br i1 %50, label %51, label %54

51:                                               ; preds = %40
  %52 = load ptr, ptr %8, align 8
  %53 = call ptr @pg_strdup(ptr noundef %52)
  br label %55

54:                                               ; preds = %40
  br label %55

55:                                               ; preds = %54, %51
  %56 = phi ptr [ %53, %51 ], [ null, %54 ]
  %57 = load ptr, ptr %9, align 8
  %58 = getelementptr inbounds nuw %struct.file_entry_t, ptr %57, i32 0, i32 11
  store ptr %56, ptr %58, align 8
  call void @llvm.lifetime.end.p0(i64 8, ptr %9) #11
  ret void
}