; Function Attrs: nounwind uwtable
define dso_local void @process_source_file(ptr noundef %0, i32 noundef %1, i64 noundef %2, ptr noundef %3) local_unnamed_addr #0 {
  %5 = tail call i32 @strcmp(ptr noundef nonnull dereferenceable(1) %0, ptr noundef nonnull dereferenceable(7) @.str) #15
  %6 = icmp eq i32 %5, 0
  %7 = icmp eq i32 %1, 3
  %or.cond = and i1 %7, %6
  %spec.store.select = select i1 %or.cond, i32 2, i32 %1
  %.not = icmp eq i32 %spec.store.select, 1
  br i1 %.not, label %11, label %8

8:                                                ; preds = %4
  %9 = tail call fastcc zeroext i1 @isRelDataFile(ptr noundef nonnull %0)
  br i1 %9, label %10, label %11

10:                                               ; preds = %8
  tail call void (i32, i32, ptr, ...) @pg_log_generic(i32 noundef 4, i32 noundef 0, ptr noundef nonnull @.str.1, ptr noundef nonnull %0) #13
  tail call void @exit(i32 noundef 1) #14
  unreachable

11:                                               ; preds = %8, %4
  %12 = tail call fastcc ptr @insert_filehash_entry(ptr noundef nonnull %0)
  %13 = getelementptr inbounds nuw i8, ptr %12, i64 56
  %14 = load i8, ptr %13, align 8, !range !8, !noundef !9
  %15 = trunc nuw i8 %14 to i1
  br i1 %15, label %16, label %17

16:                                               ; preds = %11
  tail call void (i32, i32, ptr, ...) @pg_log_generic(i32 noundef 4, i32 noundef 0, ptr noundef nonnull @.str.2, ptr noundef nonnull %0) #13
  tail call void @exit(i32 noundef 1) #14
  unreachable

17:                                               ; preds = %11
  store i8 1, ptr %13, align 8
  %18 = getelementptr inbounds nuw i8, ptr %12, i64 60
  store i32 %spec.store.select, ptr %18, align 4
  %19 = getelementptr inbounds nuw i8, ptr %12, i64 64
  store i64 %2, ptr %19, align 8
  %.not16 = icmp eq ptr %3, null
  br i1 %.not16, label %22, label %20

20:                                               ; preds = %17
  %21 = tail call ptr @pg_strdup(ptr noundef nonnull %3) #13
  br label %22

22:                                               ; preds = %17, %20
  %23 = phi ptr [ %21, %20 ], [ null, %17 ]
  %24 = getelementptr inbounds nuw i8, ptr %12, i64 72
  store ptr %23, ptr %24, align 8
  ret void
}